target datalayout = "e-m:e-p270:32:32-p271:32:32-p272:64:64-i64:64-i128:128-f80:128-n8:16:32:64-S128"
target triple = "x86_64-pc-linux-gnu"

@.str = private unnamed_addr constant [26 x i8] c"Parameter '%s' is invalid\00", align 1
@.str.1 = private unnamed_addr constant [7 x i8] c"haptic\00", align 1

; Function Attrs: nounwind uwtable
define hidden zeroext i1 @SDL_StopHapticEffects_REAL(ptr noundef %0) #0 {
  %2 = alloca i1, align 1
  %3 = alloca ptr, align 8
  store ptr %0, ptr %3, align 8
  %4 = load ptr, ptr %3, align 8
  %5 = call zeroext i1 @SDL_ObjectValid(ptr noundef %4, i32 noundef 6)
  br i1 %5, label %8, label %6

6:                                                ; preds = %1
  %7 = call zeroext i1 (ptr, ...) @SDL_SetError_REAL(ptr noundef @.str, ptr noundef @.str.1)
  store i1 false, ptr %2, align 1
  br label %17

8:                                                ; preds = %1
  %9 = load ptr, ptr %3, align 8
  %10 = call zeroext i1 @SDL_HIDAPI_HapticIsHidapi(ptr noundef %9)
  br i1 %10, label %11, label %14

11:                                               ; preds = %8
  %12 = load ptr, ptr %3, align 8
  %13 = call zeroext i1 @SDL_HIDAPI_HapticStopAll(ptr noundef %12)
  store i1 %13, ptr %2, align 1
  br label %17

14:                                               ; preds = %8
  %15 = load ptr, ptr %3, align 8
  %16 = call zeroext i1 @SDL_SYS_HapticStopAll(ptr noundef %15)
  store i1 %16, ptr %2, align 1
  br label %17

17:                                               ; preds = %14, %11, %6
  %18 = load i1, ptr %2, align 1
  ret i1 %18
}