; Function Attrs: nounwind uwtable
define hidden zeroext i1 @SDL_StopHapticEffects_REAL(ptr noundef %0) local_unnamed_addr #0 {
  %2 = tail call zeroext i1 @SDL_ObjectValid(ptr noundef %0, i32 noundef 6) #9
  br i1 %2, label %5, label %3

3:                                                ; preds = %1
  %4 = tail call zeroext i1 (ptr, ...) @SDL_SetError_REAL(ptr noundef nonnull @.str, ptr noundef nonnull @.str.1) #9
  br label %11

5:                                                ; preds = %1
  %6 = tail call zeroext i1 @SDL_HIDAPI_HapticIsHidapi(ptr noundef %0) #9
  br i1 %6, label %7, label %9

7:                                                ; preds = %5
  %8 = tail call zeroext i1 @SDL_HIDAPI_HapticStopAll(ptr noundef %0) #9
  br label %11

9:                                                ; preds = %5
  %10 = tail call zeroext i1 @SDL_SYS_HapticStopAll(ptr noundef %0) #9
  br label %11

11:                                               ; preds = %9, %7, %3
  %.0 = phi i1 [ %8, %7 ], [ %10, %9 ], [ false, %3 ]
  ret i1 %.0
}